; Function Attrs: nounwind uwtable
define ptr @l_Lean_Server_Completion_completeNamespaces___lambda__2___boxed(ptr noundef %0, ptr noundef %1, ptr noundef %2, ptr noundef %3, ptr noundef %4, ptr noundef %5, ptr noundef %6, ptr noundef %7, ptr noundef %8, ptr noundef %9, ptr noundef %10, ptr noundef %11, ptr noundef %12, ptr noundef %13) local_unnamed_addr #0 {
  %15 = ptrtoint ptr %2 to i64
  %16 = lshr i64 %15, 1
  %17 = trunc i64 %16 to i8
  %18 = and i64 %15, 1
  %.not = icmp eq i64 %18, 0
  br i1 %.not, label %19, label %lean_dec.exit17

19:                                               ; preds = %14
  %20 = load i32, ptr %2, align 4, !tbaa !8
  %21 = icmp sgt i32 %20, 1
  br i1 %21, label %22, label %24, !prof !11

22:                                               ; preds = %19
  %23 = add nsw i32 %20, -1
  store i32 %23, ptr %2, align 4, !tbaa !8
  br label %lean_dec.exit17

24:                                               ; preds = %19
  %.not.i = icmp eq i32 %20, 0
  br i1 %.not.i, label %lean_dec.exit17, label %25

25:                                               ; preds = %24
  tail call void @lean_dec_ref_cold(ptr noundef nonnull %2) #5
  br label %lean_dec.exit17

lean_dec.exit17:                                  ; preds = %25, %24, %22, %14
  %26 = getelementptr inbounds nuw i8, ptr %0, i64 40
  %27 = load ptr, ptr %26, align 8, !tbaa !4
  %28 = ptrtoint ptr %27 to i64
  %29 = and i64 %28, 1
  %.not.i20 = icmp eq i64 %29, 0
  br i1 %.not.i20, label %30, label %lean_inc.exit.i

30:                                               ; preds = %lean_dec.exit17
  %.val.i.i = load i32, ptr %27, align 4, !tbaa !8
  %31 = icmp sgt i32 %.val.i.i, 0
  br i1 %31, label %32, label %34, !prof !11

32:                                               ; preds = %30
  %33 = add nuw i32 %.val.i.i, 1
  store i32 %33, ptr %27, align 4, !tbaa !8
  br label %lean_inc.exit.i

34:                                               ; preds = %30
  %.not.i16.i = icmp eq i32 %.val.i.i, 0
  br i1 %.not.i16.i, label %lean_inc.exit.i, label %35

35:                                               ; preds = %34
  tail call void @lean_inc_ref_cold(ptr noundef nonnull %27) #5
  br label %lean_inc.exit.i

lean_inc.exit.i:                                  ; preds = %35, %34, %32, %lean_dec.exit17
  %36 = ptrtoint ptr %0 to i64
  %37 = and i64 %36, 1
  %.not17.i = icmp eq i64 %37, 0
  br i1 %.not17.i, label %38, label %l_Lean_Server_Completion_completeNamespaces___lambda__2.exit

38:                                               ; preds = %lean_inc.exit.i
  %39 = load i32, ptr %0, align 4, !tbaa !8
  %40 = icmp sgt i32 %39, 1
  br i1 %40, label %41, label %43, !prof !11

41:                                               ; preds = %38
  %42 = add nsw i32 %39, -1
  store i32 %42, ptr %0, align 4, !tbaa !8
  br label %l_Lean_Server_Completion_completeNamespaces___lambda__2.exit

43:                                               ; preds = %38
  %.not.i.i = icmp eq i32 %39, 0
  br i1 %.not.i.i, label %l_Lean_Server_Completion_completeNamespaces___lambda__2.exit, label %44

44:                                               ; preds = %43
  tail call void @lean_dec_ref_cold(ptr noundef nonnull %0) #5
  br label %l_Lean_Server_Completion_completeNamespaces___lambda__2.exit

l_Lean_Server_Completion_completeNamespaces___lambda__2.exit: ; preds = %lean_inc.exit.i, %41, %43, %44
  %45 = tail call ptr @l_Lean_Server_Completion_completeNamespaces_visitNamespaces(ptr noundef %1, i8 noundef zeroext %17, ptr noundef %3, ptr noundef %4, ptr noundef %27, ptr noundef %6, ptr noundef %7, ptr noundef %8, ptr noundef %9, ptr noundef %10, ptr noundef %11, ptr noundef %12, ptr noundef %13)
  %46 = ptrtoint ptr %5 to i64
  %47 = and i64 %46, 1
  %.not21 = icmp eq i64 %47, 0
  br i1 %.not21, label %48, label %lean_dec.exit

48:                                               ; preds = %l_Lean_Server_Completion_completeNamespaces___lambda__2.exit
  %49 = load i32, ptr %5, align 4, !tbaa !8
  %50 = icmp sgt i32 %49, 1
  br i1 %50, label %51, label %53, !prof !11

51:                                               ; preds = %48
  %52 = add nsw i32 %49, -1
  store i32 %52, ptr %5, align 4, !tbaa !8
  br label %lean_dec.exit

53:                                               ; preds = %48
  %.not.i18 = icmp eq i32 %49, 0
  br i1 %.not.i18, label %lean_dec.exit, label %54

54:                                               ; preds = %53
  tail call void @lean_dec_ref_cold(ptr noundef nonnull %5) #5
  br label %lean_dec.exit

lean_dec.exit:                                    ; preds = %54, %53, %51, %l_Lean_Server_Completion_completeNamespaces___lambda__2.exit
  ret ptr %45
}